; Function Attrs: nounwind uwtable
define ptr @Bmc_ChainCleanup(ptr noundef %0, ptr noundef readonly captures(none) %1) local_unnamed_addr #0 {
  %3 = getelementptr i8, ptr %1, i64 4
  %.val13 = load i32, ptr %3, align 4, !tbaa !62
  %4 = icmp sgt i32 %.val13, 0
  br i1 %4, label %.lr.ph, label %.critedge

.lr.ph:                                           ; preds = %2
  %5 = getelementptr i8, ptr %1, i64 8
  %6 = getelementptr i8, ptr %0, i64 32
  %7 = getelementptr i8, ptr %0, i64 72
  br label %8

8:                                                ; preds = %.lr.ph, %8
  %indvars.iv = phi i64 [ 0, %.lr.ph ], [ %indvars.iv.next, %8 ]
  %.val9 = load ptr, ptr %5, align 8, !tbaa !64
  %9 = getelementptr inbounds nuw i32, ptr %.val9, i64 %indvars.iv
  %10 = load i32, ptr %9, align 4, !tbaa !43
  %.val10 = load ptr, ptr %6, align 8, !tbaa !51
  %.val11 = load ptr, ptr %7, align 8, !tbaa !65
  %11 = getelementptr i8, ptr %.val11, i64 8
  %.val11.val = load ptr, ptr %11, align 8, !tbaa !64
  %12 = sext i32 %10 to i64
  %13 = getelementptr inbounds i32, ptr %.val11.val, i64 %12
  %14 = load i32, ptr %13, align 4, !tbaa !43
  %15 = sext i32 %14 to i64
  %16 = getelementptr inbounds %struct.Gia_Obj_t_, ptr %.val10, i64 %15
  %17 = load i64, ptr %16, align 4
  %18 = and i64 %15, 536870911
  %19 = and i64 %17, -1073741824
  %20 = or disjoint i64 %19, %18
  store i64 %20, ptr %16, align 4
  %indvars.iv.next = add nuw nsw i64 %indvars.iv, 1
  %.val = load i32, ptr %3, align 4, !tbaa !62
  %21 = sext i32 %.val to i64
  %22 = icmp slt i64 %indvars.iv.next, %21
  br i1 %22, label %8, label %.critedge, !llvm.loop !100

.critedge:                                        ; preds = %8, %2
  %23 = tail call ptr @Gia_ManCleanup(ptr noundef %0) #17
  ret ptr %23
}